; Function Attrs: nounwind uwtable
define ptr @X509V3_EXT_conf(ptr noundef %0, ptr noundef %1, ptr noundef %2, ptr noundef %3) local_unnamed_addr #0 {
  %5 = tail call ptr @NCONF_new(ptr noundef null) #6
  %6 = icmp eq ptr %5, null
  br i1 %6, label %9, label %7

7:                                                ; preds = %4
  tail call void @CONF_set_nconf(ptr noundef nonnull %5, ptr noundef %0) #6
  %8 = tail call fastcc ptr @X509V3_EXT_nconf_int(ptr noundef nonnull %5, ptr noundef %1, ptr noundef null, ptr noundef %2, ptr noundef %3)
  tail call void @CONF_set_nconf(ptr noundef nonnull %5, ptr noundef null) #6
  tail call void @NCONF_free(ptr noundef nonnull %5) #6
  br label %9

9:                                                ; preds = %4, %7
  %.0 = phi ptr [ %8, %7 ], [ null, %4 ]
  ret ptr %.0
}